; Function Attrs: mustprogress uwtable
define hidden noundef zeroext i1 @_ZN11OpenImageIO6v3_1_08webp_pvt9WebpInput5closeEv(ptr noundef nonnull align 8 dereferenceable(352) %0) unnamed_addr #5 align 2 personality ptr @__gxx_personality_v0 {
  %2 = getelementptr inbounds nuw i8, ptr %0, i64 256
  %3 = load ptr, ptr %2, align 8, !tbaa !78
  %.not = icmp eq ptr %3, null
  br i1 %.not, label %7, label %4

4:                                                ; preds = %1
  %5 = getelementptr inbounds nuw i8, ptr %0, i64 264
  tail call void @WebPDemuxReleaseIterator(ptr noundef nonnull %5)
  %6 = load ptr, ptr %2, align 8, !tbaa !78
  tail call void @WebPDemuxDelete(ptr noundef %6)
  store ptr null, ptr %2, align 8, !tbaa !78
  br label %7

7:                                                ; preds = %4, %1
  %8 = getelementptr inbounds nuw i8, ptr %0, i64 224
  %9 = load ptr, ptr %8, align 8, !tbaa !79
  store ptr null, ptr %8, align 8, !tbaa !79
  %.not.i.i.i = icmp eq ptr %9, null
  br i1 %.not.i.i.i, label %_ZNSt10unique_ptrIA_hSt14default_deleteIS0_EE5resetEDn.exit, label %_ZNKSt14default_deleteIA_hEclIhEENSt9enable_ifIXsr14is_convertibleIPA_T_PS0_EE5valueEvE4typeEPS4_.exit.i.i.i

_ZNKSt14default_deleteIA_hEclIhEENSt9enable_ifIXsr14is_convertibleIPA_T_PS0_EE5valueEvE4typeEPS4_.exit.i.i.i: ; preds = %7
  tail call void @_ZdaPv(ptr noundef nonnull %9) #25
  br label %_ZNSt10unique_ptrIA_hSt14default_deleteIS0_EE5resetEDn.exit

_ZNSt10unique_ptrIA_hSt14default_deleteIS0_EE5resetEDn.exit: ; preds = %7, %_ZNKSt14default_deleteIA_hEclIhEENSt9enable_ifIXsr14is_convertibleIPA_T_PS0_EE5valueEvE4typeEPS4_.exit.i.i.i
  %10 = getelementptr inbounds nuw i8, ptr %0, i64 216
  %11 = load ptr, ptr %10, align 8, !tbaa !79
  store ptr null, ptr %10, align 8, !tbaa !79
  %.not.i.i.i1 = icmp eq ptr %11, null
  br i1 %.not.i.i.i1, label %_ZNSt10unique_ptrIA_hSt14default_deleteIS0_EE5resetEDn.exit3, label %_ZNKSt14default_deleteIA_hEclIhEENSt9enable_ifIXsr14is_convertibleIPA_T_PS0_EE5valueEvE4typeEPS4_.exit.i.i.i2

_ZNKSt14default_deleteIA_hEclIhEENSt9enable_ifIXsr14is_convertibleIPA_T_PS0_EE5valueEvE4typeEPS4_.exit.i.i.i2: ; preds = %_ZNSt10unique_ptrIA_hSt14default_deleteIS0_EE5resetEDn.exit
  tail call void @_ZdaPv(ptr noundef nonnull %11) #25
  br label %_ZNSt10unique_ptrIA_hSt14default_deleteIS0_EE5resetEDn.exit3

_ZNSt10unique_ptrIA_hSt14default_deleteIS0_EE5resetEDn.exit3: ; preds = %_ZNSt10unique_ptrIA_hSt14default_deleteIS0_EE5resetEDn.exit, %_ZNKSt14default_deleteIA_hEclIhEENSt9enable_ifIXsr14is_convertibleIPA_T_PS0_EE5valueEvE4typeEPS4_.exit.i.i.i2
  %12 = getelementptr inbounds nuw i8, ptr %0, i64 344
  store i32 -1, ptr %12, align 8, !tbaa !80
  %13 = getelementptr inbounds nuw i8, ptr %0, i64 184
  %14 = getelementptr inbounds nuw i8, ptr %0, i64 192
  store i64 0, ptr %14, align 8, !tbaa !27
  %15 = load ptr, ptr %13, align 8, !tbaa !26
  store i8 0, ptr %15, align 1, !tbaa !28
  tail call void @_ZN11OpenImageIO6v3_1_010ImageInput13ioproxy_clearEv(ptr noundef nonnull align 8 dereferenceable(352) %0)
  ret i1 true
}